target datalayout = "e-m:e-p270:32:32-p271:32:32-p272:64:64-i64:64-i128:128-f80:128-n8:16:32:64-S128"
target triple = "x86_64-pc-linux-gnu"

%union.pthread_mutex_t = type { %struct.__pthread_mutex_s }
%struct.__pthread_mutex_s = type { i32, i32, i32, i32, i32, i16, i16, %struct.__pthread_internal_list }
%struct.__pthread_internal_list = type { ptr, ptr }
%"struct.std::_Optional_payload_base<float>::_Empty_byte" = type { i8 }
%"class.std::optional" = type { %"struct.std::_Optional_base" }
%"struct.std::_Optional_base" = type { %"struct.std::_Optional_payload" }
%"struct.std::_Optional_payload" = type { %"struct.std::_Optional_payload_base.base", [3 x i8] }
%"struct.std::_Optional_payload_base.base" = type <{ %"union.std::_Optional_payload_base<float>::_Storage", i8 }>
%"union.std::_Optional_payload_base<float>::_Storage" = type { float }
%"class.std::lock_guard" = type { ptr }
%"struct.gmx::EnumerationArray" = type { [3 x %"class.std::optional"] }
%"class.std::__mutex_base" = type { %union.pthread_mutex_t }
%"struct.std::_Optional_payload_base" = type <{ %"union.std::_Optional_payload_base<float>::_Storage", i8, [3 x i8] }>

$_ZNSt10lock_guardISt5mutexEC2ERS0_ = comdat any

$_ZN3gmx16EnumerationArrayI11TimeControlSt8optionalIfELS1_3EEixES1_ = comdat any

$_ZNSt10lock_guardISt5mutexED2Ev = comdat any

$_ZNSt5mutex4lockEv = comdat any

$_ZNSt5mutex6unlockEv = comdat any

$__clang_call_terminate = comdat any

$_ZNSt8optionalIfE7emplaceIJRfEEENSt9enable_ifIX18is_constructible_vIfDpT_EES2_E4typeEDpOS4_ = comdat any

$_ZNSt19_Optional_base_implIfSt14_Optional_baseIfLb1ELb1EEE8_M_resetEv = comdat any

$_ZNSt19_Optional_base_implIfSt14_Optional_baseIfLb1ELb1EEE12_M_constructIJRfEEEvDpOT_ = comdat any

$_ZNSt19_Optional_base_implIfSt14_Optional_baseIfLb1ELb1EEE6_M_getEv = comdat any

$_ZNSt22_Optional_payload_baseIfE8_M_resetEv = comdat any

$_ZNSt22_Optional_payload_baseIfE10_M_destroyEv = comdat any

$_ZNSt22_Optional_payload_baseIfE12_M_constructIJRfEEEvDpOT_ = comdat any

$_ZSt10_ConstructIfJRfEEvPT_DpOT0_ = comdat any

$_ZNSt22_Optional_payload_baseIfE6_M_getEv = comdat any

$_ZNSt8optionalIfE5resetEv = comdat any

@_ZL18g_timeControlMutex = internal global { %union.pthread_mutex_t } zeroinitializer, align 8
@_ZL11timecontrol = internal global { [3 x { { { %"struct.std::_Optional_payload_base<float>::_Empty_byte", [3 x i8] }, i8, [3 x i8] } }] } { [3 x { { { %"struct.std::_Optional_payload_base<float>::_Empty_byte", [3 x i8] }, i8, [3 x i8] } }] [{ { { %"struct.std::_Optional_payload_base<float>::_Empty_byte", [3 x i8] }, i8, [3 x i8] } } { { { %"struct.std::_Optional_payload_base<float>::_Empty_byte", [3 x i8] }, i8, [3 x i8] } { { %"struct.std::_Optional_payload_base<float>::_Empty_byte", [3 x i8] } undef, i8 0, [3 x i8] undef } }, { { { %"struct.std::_Optional_payload_base<float>::_Empty_byte", [3 x i8] }, i8, [3 x i8] } } { { { %"struct.std::_Optional_payload_base<float>::_Empty_byte", [3 x i8] }, i8, [3 x i8] } { { %"struct.std::_Optional_payload_base<float>::_Empty_byte", [3 x i8] } undef, i8 0, [3 x i8] undef } }, { { { %"struct.std::_Optional_payload_base<float>::_Empty_byte", [3 x i8] }, i8, [3 x i8] } } { { { %"struct.std::_Optional_payload_base<float>::_Empty_byte", [3 x i8] }, i8, [3 x i8] } { { %"struct.std::_Optional_payload_base<float>::_Empty_byte", [3 x i8] } undef, i8 0, [3 x i8] undef } }] }, align 4

; Function Attrs: mustprogress uwtable
define i64 @_Z9timeValue11TimeControl(i32 noundef %0) #0 personality ptr @__gxx_personality_v0 {
  %2 = alloca %"class.std::optional", align 4
  %3 = alloca i32, align 4
  %4 = alloca %"class.std::lock_guard", align 8
  %5 = alloca ptr, align 8
  %6 = alloca i32, align 4
  store i32 %0, ptr %3, align 4
  call void @_ZNSt10lock_guardISt5mutexEC2ERS0_(ptr noundef nonnull align 8 dereferenceable(8) %4, ptr noundef nonnull align 8 dereferenceable(40) @_ZL18g_timeControlMutex)
  %7 = load i32, ptr %3, align 4
  %8 = invoke noundef nonnull align 4 dereferenceable(8) ptr @_ZN3gmx16EnumerationArrayI11TimeControlSt8optionalIfELS1_3EEixES1_(ptr noundef nonnull align 4 dereferenceable(24) @_ZL11timecontrol, i32 noundef %7)
          to label %9 unwind label %13

9:                                                ; preds = %1
  call void @llvm.memcpy.p0.p0.i64(ptr align 4 %2, ptr align 4 %8, i64 8, i1 false)
  call void @_ZNSt10lock_guardISt5mutexED2Ev(ptr noundef nonnull align 8 dereferenceable(8) %4) #6
  %10 = getelementptr inbounds %"class.std::optional", ptr %2, i32 0, i32 0
  %11 = getelementptr inbounds %"struct.std::_Optional_base", ptr %10, i32 0, i32 0
  %12 = load i64, ptr %11, align 4
  ret i64 %12

13:                                               ; preds = %1
  %14 = landingpad { ptr, i32 }
          cleanup
  %15 = extractvalue { ptr, i32 } %14, 0
  store ptr %15, ptr %5, align 8
  %16 = extractvalue { ptr, i32 } %14, 1
  store i32 %16, ptr %6, align 4
  call void @_ZNSt10lock_guardISt5mutexED2Ev(ptr noundef nonnull align 8 dereferenceable(8) %4) #6
  br label %17

17:                                               ; preds = %13
  %18 = load ptr, ptr %5, align 8
  %19 = load i32, ptr %6, align 4
  %20 = insertvalue { ptr, i32 } poison, ptr %18, 0
  %21 = insertvalue { ptr, i32 } %20, i32 %19, 1
  resume { ptr, i32 } %21
}

; Function Attrs: mustprogress uwtable
define linkonce_odr void @_ZNSt10lock_guardISt5mutexEC2ERS0_(ptr noundef nonnull align 8 dereferenceable(8) %0, ptr noundef nonnull align 8 dereferenceable(40) %1) unnamed_addr #0 comdat align 2 {
  %3 = alloca ptr, align 8
  %4 = alloca ptr, align 8
  store ptr %0, ptr %3, align 8
  store ptr %1, ptr %4, align 8
  %5 = load ptr, ptr %3, align 8
  %6 = getelementptr inbounds %"class.std::lock_guard", ptr %5, i32 0, i32 0
  %7 = load ptr, ptr %4, align 8
  store ptr %7, ptr %6, align 8
  %8 = getelementptr inbounds %"class.std::lock_guard", ptr %5, i32 0, i32 0
  %9 = load ptr, ptr %8, align 8
  call void @_ZNSt5mutex4lockEv(ptr noundef nonnull align 8 dereferenceable(40) %9)
  ret void
}

; Function Attrs: mustprogress nounwind uwtable
define linkonce_odr noundef nonnull align 4 dereferenceable(8) ptr @_ZN3gmx16EnumerationArrayI11TimeControlSt8optionalIfELS1_3EEixES1_(ptr noundef nonnull align 4 dereferenceable(24) %0, i32 noundef %1) #1 comdat align 2 {
  %3 = alloca ptr, align 8
  %4 = alloca i32, align 4
  store ptr %0, ptr %3, align 8
  store i32 %1, ptr %4, align 4
  %5 = load ptr, ptr %3, align 8
  %6 = getelementptr inbounds %"struct.gmx::EnumerationArray", ptr %5, i32 0, i32 0
  %7 = load i32, ptr %4, align 4
  %8 = sext i32 %7 to i64
  %9 = getelementptr inbounds [3 x %"class.std::optional"], ptr %6, i64 0, i64 %8
  ret ptr %9
}

declare i32 @__gxx_personality_v0(...)

; Function Attrs: nocallback nofree nounwind willreturn memory(argmem: readwrite)
declare void @llvm.memcpy.p0.p0.i64(ptr noalias nocapture writeonly, ptr noalias nocapture readonly, i64, i1 immarg) #2

; Function Attrs: mustprogress nounwind uwtable
define linkonce_odr void @_ZNSt10lock_guardISt5mutexED2Ev(ptr noundef nonnull align 8 dereferenceable(8) %0) unnamed_addr #1 comdat align 2 personality ptr @__gxx_personality_v0 {
  %2 = alloca ptr, align 8
  store ptr %0, ptr %2, align 8
  %3 = load ptr, ptr %2, align 8
  %4 = getelementptr inbounds %"class.std::lock_guard", ptr %3, i32 0, i32 0
  %5 = load ptr, ptr %4, align 8
  invoke void @_ZNSt5mutex6unlockEv(ptr noundef nonnull align 8 dereferenceable(40) %5)
          to label %6 unwind label %7

6:                                                ; preds = %1
  ret void

7:                                                ; preds = %1
  %8 = landingpad { ptr, i32 }
          catch ptr null
  %9 = extractvalue { ptr, i32 } %8, 0
  call void @__clang_call_terminate(ptr %9) #7
  unreachable
}

; Function Attrs: mustprogress uwtable
define linkonce_odr void @_ZNSt5mutex4lockEv(ptr noundef nonnull align 8 dereferenceable(40) %0) #0 comdat align 2 {
  %2 = alloca ptr, align 8
  %3 = alloca i32, align 4
  store ptr %0, ptr %2, align 8
  %4 = load ptr, ptr %2, align 8
  %5 = getelementptr inbounds %"class.std::__mutex_base", ptr %4, i32 0, i32 0
  %6 = call noundef i32 @_ZL20__gthread_mutex_lockP15pthread_mutex_t(ptr noundef %5)
  store i32 %6, ptr %3, align 4
  %7 = load i32, ptr %3, align 4
  %8 = icmp ne i32 %7, 0
  br i1 %8, label %9, label %11

9:                                                ; preds = %1
  %10 = load i32, ptr %3, align 4
  call void @_ZSt20__throw_system_errori(i32 noundef %10) #8
  unreachable

11:                                               ; preds = %1
  ret void
}

; Function Attrs: mustprogress uwtable
define internal noundef i32 @_ZL20__gthread_mutex_lockP15pthread_mutex_t(ptr noundef %0) #0 {
  %2 = alloca i32, align 4
  %3 = alloca ptr, align 8
  store ptr %0, ptr %3, align 8
  %4 = call noundef i32 @_ZL18__gthread_active_pv()
  %5 = icmp ne i32 %4, 0
  br i1 %5, label %6, label %9

6:                                                ; preds = %1
  %7 = load ptr, ptr %3, align 8
  %8 = call i32 @pthread_mutex_lock(ptr noundef %7) #6
  store i32 %8, ptr %2, align 4
  br label %10

9:                                                ; preds = %1
  store i32 0, ptr %2, align 4
  br label %10

10:                                               ; preds = %9, %6
  %11 = load i32, ptr %2, align 4
  ret i32 %11
}

; Function Attrs: noreturn
declare void @_ZSt20__throw_system_errori(i32 noundef) #3

; Function Attrs: mustprogress nounwind uwtable
define internal noundef i32 @_ZL18__gthread_active_pv() #1 {
  ret i32 1
}

; Function Attrs: nounwind
declare i32 @pthread_mutex_lock(ptr noundef) #4

; Function Attrs: mustprogress uwtable
define linkonce_odr void @_ZNSt5mutex6unlockEv(ptr noundef nonnull align 8 dereferenceable(40) %0) #0 comdat align 2 {
  %2 = alloca ptr, align 8
  store ptr %0, ptr %2, align 8
  %3 = load ptr, ptr %2, align 8
  %4 = getelementptr inbounds %"class.std::__mutex_base", ptr %3, i32 0, i32 0
  %5 = call noundef i32 @_ZL22__gthread_mutex_unlockP15pthread_mutex_t(ptr noundef %4)
  ret void
}

; Function Attrs: noreturn nounwind uwtable
define linkonce_odr hidden void @__clang_call_terminate(ptr noundef %0) #5 comdat {
  %2 = call ptr @__cxa_begin_catch(ptr %0) #6
  call void @_ZSt9terminatev() #7
  unreachable
}

declare ptr @__cxa_begin_catch(ptr)

declare void @_ZSt9terminatev()

; Function Attrs: mustprogress nounwind uwtable
define internal noundef i32 @_ZL22__gthread_mutex_unlockP15pthread_mutex_t(ptr noundef %0) #1 {
  %2 = alloca i32, align 4
  %3 = alloca ptr, align 8
  store ptr %0, ptr %3, align 8
  %4 = call noundef i32 @_ZL18__gthread_active_pv()
  %5 = icmp ne i32 %4, 0
  br i1 %5, label %6, label %9

6:                                                ; preds = %1
  %7 = load ptr, ptr %3, align 8
  %8 = call i32 @pthread_mutex_unlock(ptr noundef %7) #6
  store i32 %8, ptr %2, align 4
  br label %10

9:                                                ; preds = %1
  store i32 0, ptr %2, align 4
  br label %10

10:                                               ; preds = %9, %6
  %11 = load i32, ptr %2, align 4
  ret i32 %11
}

; Function Attrs: nounwind
declare i32 @pthread_mutex_unlock(ptr noundef) #4

; Function Attrs: mustprogress uwtable
define void @_Z12setTimeValue11TimeControlf(i32 noundef %0, float noundef %1) #0 {
  %3 = alloca i32, align 4
  %4 = alloca float, align 4
  %5 = alloca %"class.std::lock_guard", align 8
  store i32 %0, ptr %3, align 4
  store float %1, ptr %4, align 4
  call void @_ZNSt10lock_guardISt5mutexEC2ERS0_(ptr noundef nonnull align 8 dereferenceable(8) %5, ptr noundef nonnull align 8 dereferenceable(40) @_ZL18g_timeControlMutex)
  %6 = load i32, ptr %3, align 4
  %7 = call noundef nonnull align 4 dereferenceable(8) ptr @_ZN3gmx16EnumerationArrayI11TimeControlSt8optionalIfELS1_3EEixES1_(ptr noundef nonnull align 4 dereferenceable(24) @_ZL11timecontrol, i32 noundef %6)
  %8 = call noundef nonnull align 4 dereferenceable(4) ptr @_ZNSt8optionalIfE7emplaceIJRfEEENSt9enable_ifIX18is_constructible_vIfDpT_EES2_E4typeEDpOS4_(ptr noundef nonnull align 4 dereferenceable(8) %7, ptr noundef nonnull align 4 dereferenceable(4) %4) #6
  call void @_ZNSt10lock_guardISt5mutexED2Ev(ptr noundef nonnull align 8 dereferenceable(8) %5) #6
  ret void
}

; Function Attrs: mustprogress nounwind uwtable
define linkonce_odr noundef nonnull align 4 dereferenceable(4) ptr @_ZNSt8optionalIfE7emplaceIJRfEEENSt9enable_ifIX18is_constructible_vIfDpT_EES2_E4typeEDpOS4_(ptr noundef nonnull align 4 dereferenceable(8) %0, ptr noundef nonnull align 4 dereferenceable(4) %1) #1 comdat align 2 {
  %3 = alloca ptr, align 8
  %4 = alloca ptr, align 8
  store ptr %0, ptr %3, align 8
  store ptr %1, ptr %4, align 8
  %5 = load ptr, ptr %3, align 8
  call void @_ZNSt19_Optional_base_implIfSt14_Optional_baseIfLb1ELb1EEE8_M_resetEv(ptr noundef nonnull align 1 dereferenceable(1) %5) #6
  %6 = load ptr, ptr %4, align 8
  call void @_ZNSt19_Optional_base_implIfSt14_Optional_baseIfLb1ELb1EEE12_M_constructIJRfEEEvDpOT_(ptr noundef nonnull align 1 dereferenceable(1) %5, ptr noundef nonnull align 4 dereferenceable(4) %6) #6
  %7 = call noundef nonnull align 4 dereferenceable(4) ptr @_ZNSt19_Optional_base_implIfSt14_Optional_baseIfLb1ELb1EEE6_M_getEv(ptr noundef nonnull align 1 dereferenceable(1) %5) #6
  ret ptr %7
}

; Function Attrs: mustprogress nounwind uwtable
define linkonce_odr void @_ZNSt19_Optional_base_implIfSt14_Optional_baseIfLb1ELb1EEE8_M_resetEv(ptr noundef nonnull align 1 dereferenceable(1) %0) #1 comdat align 2 {
  %2 = alloca ptr, align 8
  store ptr %0, ptr %2, align 8
  %3 = load ptr, ptr %2, align 8
  %4 = getelementptr inbounds %"struct.std::_Optional_base", ptr %3, i32 0, i32 0
  call void @_ZNSt22_Optional_payload_baseIfE8_M_resetEv(ptr noundef nonnull align 4 dereferenceable(5) %4) #6
  ret void
}

; Function Attrs: mustprogress nounwind uwtable
define linkonce_odr void @_ZNSt19_Optional_base_implIfSt14_Optional_baseIfLb1ELb1EEE12_M_constructIJRfEEEvDpOT_(ptr noundef nonnull align 1 dereferenceable(1) %0, ptr noundef nonnull align 4 dereferenceable(4) %1) #1 comdat align 2 {
  %3 = alloca ptr, align 8
  %4 = alloca ptr, align 8
  store ptr %0, ptr %3, align 8
  store ptr %1, ptr %4, align 8
  %5 = load ptr, ptr %3, align 8
  %6 = getelementptr inbounds %"struct.std::_Optional_base", ptr %5, i32 0, i32 0
  %7 = load ptr, ptr %4, align 8
  call void @_ZNSt22_Optional_payload_baseIfE12_M_constructIJRfEEEvDpOT_(ptr noundef nonnull align 4 dereferenceable(5) %6, ptr noundef nonnull align 4 dereferenceable(4) %7) #6
  ret void
}

; Function Attrs: mustprogress nounwind uwtable
define linkonce_odr noundef nonnull align 4 dereferenceable(4) ptr @_ZNSt19_Optional_base_implIfSt14_Optional_baseIfLb1ELb1EEE6_M_getEv(ptr noundef nonnull align 1 dereferenceable(1) %0) #1 comdat align 2 {
  %2 = alloca ptr, align 8
  store ptr %0, ptr %2, align 8
  %3 = load ptr, ptr %2, align 8
  br label %4

4:                                                ; preds = %1
  br label %5

5:                                                ; preds = %4
  br label %6

6:                                                ; preds = %5
  %7 = getelementptr inbounds %"struct.std::_Optional_base", ptr %3, i32 0, i32 0
  %8 = call noundef nonnull align 4 dereferenceable(4) ptr @_ZNSt22_Optional_payload_baseIfE6_M_getEv(ptr noundef nonnull align 4 dereferenceable(5) %7) #6
  ret ptr %8
}

; Function Attrs: mustprogress nounwind uwtable
define linkonce_odr void @_ZNSt22_Optional_payload_baseIfE8_M_resetEv(ptr noundef nonnull align 4 dereferenceable(5) %0) #1 comdat align 2 {
  %2 = alloca ptr, align 8
  store ptr %0, ptr %2, align 8
  %3 = load ptr, ptr %2, align 8
  %4 = getelementptr inbounds %"struct.std::_Optional_payload_base", ptr %3, i32 0, i32 1
  %5 = load i8, ptr %4, align 4
  %6 = trunc i8 %5 to i1
  br i1 %6, label %7, label %8

7:                                                ; preds = %1
  call void @_ZNSt22_Optional_payload_baseIfE10_M_destroyEv(ptr noundef nonnull align 4 dereferenceable(5) %3) #6
  br label %8

8:                                                ; preds = %7, %1
  ret void
}

; Function Attrs: mustprogress nounwind uwtable
define linkonce_odr void @_ZNSt22_Optional_payload_baseIfE10_M_destroyEv(ptr noundef nonnull align 4 dereferenceable(5) %0) #1 comdat align 2 {
  %2 = alloca ptr, align 8
  store ptr %0, ptr %2, align 8
  %3 = load ptr, ptr %2, align 8
  %4 = getelementptr inbounds %"struct.std::_Optional_payload_base", ptr %3, i32 0, i32 1
  store i8 0, ptr %4, align 4
  ret void
}

; Function Attrs: mustprogress nounwind uwtable
define linkonce_odr void @_ZNSt22_Optional_payload_baseIfE12_M_constructIJRfEEEvDpOT_(ptr noundef nonnull align 4 dereferenceable(5) %0, ptr noundef nonnull align 4 dereferenceable(4) %1) #1 comdat align 2 personality ptr @__gxx_personality_v0 {
  %3 = alloca ptr, align 8
  %4 = alloca ptr, align 8
  store ptr %0, ptr %3, align 8
  store ptr %1, ptr %4, align 8
  %5 = load ptr, ptr %3, align 8
  %6 = getelementptr inbounds %"struct.std::_Optional_payload_base", ptr %5, i32 0, i32 0
  %7 = load ptr, ptr %4, align 8
  invoke void @_ZSt10_ConstructIfJRfEEvPT_DpOT0_(ptr noundef %6, ptr noundef nonnull align 4 dereferenceable(4) %7)
          to label %8 unwind label %10

8:                                                ; preds = %2
  %9 = getelementptr inbounds %"struct.std::_Optional_payload_base", ptr %5, i32 0, i32 1
  store i8 1, ptr %9, align 4
  ret void

10:                                               ; preds = %2
  %11 = landingpad { ptr, i32 }
          catch ptr null
  %12 = extractvalue { ptr, i32 } %11, 0
  call void @__clang_call_terminate(ptr %12) #7
  unreachable
}

; Function Attrs: mustprogress nounwind uwtable
define linkonce_odr void @_ZSt10_ConstructIfJRfEEvPT_DpOT0_(ptr noundef %0, ptr noundef nonnull align 4 dereferenceable(4) %1) #1 comdat {
  %3 = alloca ptr, align 8
  %4 = alloca ptr, align 8
  store ptr %0, ptr %3, align 8
  store ptr %1, ptr %4, align 8
  %5 = load ptr, ptr %3, align 8
  %6 = load ptr, ptr %4, align 8
  %7 = load float, ptr %6, align 4
  store float %7, ptr %5, align 4
  ret void
}

; Function Attrs: mustprogress nounwind uwtable
define linkonce_odr noundef nonnull align 4 dereferenceable(4) ptr @_ZNSt22_Optional_payload_baseIfE6_M_getEv(ptr noundef nonnull align 4 dereferenceable(5) %0) #1 comdat align 2 {
  %2 = alloca ptr, align 8
  store ptr %0, ptr %2, align 8
  %3 = load ptr, ptr %2, align 8
  %4 = getelementptr inbounds %"struct.std::_Optional_payload_base", ptr %3, i32 0, i32 0
  ret ptr %4
}

; Function Attrs: mustprogress uwtable
define void @_Z14unsetTimeValue11TimeControl(i32 noundef %0) #0 {
  %2 = alloca i32, align 4
  %3 = alloca %"class.std::lock_guard", align 8
  store i32 %0, ptr %2, align 4
  call void @_ZNSt10lock_guardISt5mutexEC2ERS0_(ptr noundef nonnull align 8 dereferenceable(8) %3, ptr noundef nonnull align 8 dereferenceable(40) @_ZL18g_timeControlMutex)
  %4 = load i32, ptr %2, align 4
  %5 = call noundef nonnull align 4 dereferenceable(8) ptr @_ZN3gmx16EnumerationArrayI11TimeControlSt8optionalIfELS1_3EEixES1_(ptr noundef nonnull align 4 dereferenceable(24) @_ZL11timecontrol, i32 noundef %4)
  call void @_ZNSt8optionalIfE5resetEv(ptr noundef nonnull align 4 dereferenceable(8) %5) #6
  call void @_ZNSt10lock_guardISt5mutexED2Ev(ptr noundef nonnull align 8 dereferenceable(8) %3) #6
  ret void
}

; Function Attrs: mustprogress nounwind uwtable
define linkonce_odr void @_ZNSt8optionalIfE5resetEv(ptr noundef nonnull align 4 dereferenceable(8) %0) #1 comdat align 2 {
  %2 = alloca ptr, align 8
  store ptr %0, ptr %2, align 8
  %3 = load ptr, ptr %2, align 8
  call void @_ZNSt19_Optional_base_implIfSt14_Optional_baseIfLb1ELb1EEE8_M_resetEv(ptr noundef nonnull align 1 dereferenceable(1) %3) #6
  ret void
}


!llvm.module.flags = !{!0, !1, !2, !3, !4}

!0 = !{i32 1, !"wchar_size", i32 4}
!1 = !{i32 7, !"openmp", i32 51}
!2 = !{i32 8, !"PIC Level", i32 2}
!3 = !{i32 7, !"uwtable", i32 2}
!4 = !{i32 7, !"frame-pointer", i32 2}
